; Function Attrs: mustprogress nofree norecurse nosync nounwind willreturn memory(readwrite, inaccessiblemem: none) uwtable
define dso_local void @_PyFunction_SetVersion(ptr noundef initializes((144, 148)) %0, i32 noundef %1) local_unnamed_addr #3 {
  %3 = getelementptr inbounds nuw i8, ptr %0, i64 144
  store i32 %1, ptr %3, align 8, !tbaa !119
  %4 = tail call align 8 ptr @llvm.threadlocal.address.p0(ptr align 8 @_Py_tss_tstate)
  %5 = load ptr, ptr %4, align 8, !tbaa !4
  %6 = getelementptr inbounds nuw i8, ptr %5, i64 16
  %7 = load ptr, ptr %6, align 8, !tbaa !9
  %8 = getelementptr inbounds nuw i8, ptr %7, i64 14112
  %9 = and i32 %1, 4095
  %10 = zext nneg i32 %9 to i64
  %11 = getelementptr %struct._func_version_cache_item, ptr %8, i64 %10
  store ptr %0, ptr %11, align 8, !tbaa !137
  %12 = getelementptr inbounds nuw i8, ptr %0, i64 48
  %13 = load ptr, ptr %12, align 8, !tbaa !109
  %14 = getelementptr inbounds nuw i8, ptr %11, i64 8
  store ptr %13, ptr %14, align 8, !tbaa !139
  ret void
}